target datalayout = "e-m:e-p270:32:32-p271:32:32-p272:64:64-i64:64-i128:128-f80:128-n8:16:32:64-S128"
target triple = "x86_64-pc-linux-gnu"

%struct.TextureObject = type { %"class.std::vector", %"class.std::vector.0" }
%"class.std::vector" = type { %"struct.std::_Vector_base" }
%"struct.std::_Vector_base" = type { %"struct.std::_Vector_base<TextureImageInfo, std::allocator<TextureImageInfo>>::_Vector_impl" }
%"struct.std::_Vector_base<TextureImageInfo, std::allocator<TextureImageInfo>>::_Vector_impl" = type { %"struct.std::_Vector_base<TextureImageInfo, std::allocator<TextureImageInfo>>::_Vector_impl_data" }
%"struct.std::_Vector_base<TextureImageInfo, std::allocator<TextureImageInfo>>::_Vector_impl_data" = type { ptr, ptr, ptr }
%"class.std::vector.0" = type { %"struct.std::_Vector_base.1" }
%"struct.std::_Vector_base.1" = type { %"struct.std::_Vector_base<unsigned int, std::allocator<unsigned int>>::_Vector_impl" }
%"struct.std::_Vector_base<unsigned int, std::allocator<unsigned int>>::_Vector_impl" = type { %"struct.std::_Vector_base<unsigned int, std::allocator<unsigned int>>::_Vector_impl_data" }
%"struct.std::_Vector_base<unsigned int, std::allocator<unsigned int>>::_Vector_impl_data" = type { ptr, ptr, ptr }
%struct.TextureImageInfo = type { %class.QImage }
%class.QImage = type { %class.QPaintDevice, ptr }
%class.QPaintDevice = type { ptr, i16, ptr }

@.str.2 = private unnamed_addr constant [189 x i8] c"generated/home/dtcxzyw/WorkSpace/Projects/compilers/llvm-opt-benchmark/bench/meshlab/meshlab/src/meshlabplugins/filter_texture_defragmentation/TextureDefragmentation/src/texture_object.cpp\00", align 1
@.str.7 = private unnamed_addr constant [22 x i8] c"i < texInfoVec.size()\00", align 1
@.str.8 = private unnamed_addr constant [16 x i8] c"i < ArraySize()\00", align 1

; Function Attrs: mustprogress nounwind uwtable
define linkonce_odr noundef nonnull align 8 dereferenceable(32) ptr @_ZNSt6vectorI16TextureImageInfoSaIS0_EEixEm(ptr noundef nonnull align 8 dereferenceable(24) %0, i64 noundef %1) #4 comdat align 2 {
  %3 = alloca ptr, align 8
  %4 = alloca i64, align 8
  store ptr %0, ptr %3, align 8
  store i64 %1, ptr %4, align 8
  %5 = load ptr, ptr %3, align 8
  %6 = getelementptr inbounds %"struct.std::_Vector_base", ptr %5, i32 0, i32 0
  %7 = getelementptr inbounds %"struct.std::_Vector_base<TextureImageInfo, std::allocator<TextureImageInfo>>::_Vector_impl_data", ptr %6, i32 0, i32 0
  %8 = load ptr, ptr %7, align 8
  %9 = load i64, ptr %4, align 8
  %10 = getelementptr inbounds %struct.TextureImageInfo, ptr %8, i64 %9
  ret ptr %10
}

; Function Attrs: mustprogress nounwind uwtable
define linkonce_odr noundef i64 @_ZNKSt6vectorI16TextureImageInfoSaIS0_EE4sizeEv(ptr noundef nonnull align 8 dereferenceable(24) %0) #4 comdat align 2 {
  %2 = alloca ptr, align 8
  store ptr %0, ptr %2, align 8
  %3 = load ptr, ptr %2, align 8
  %4 = getelementptr inbounds %"struct.std::_Vector_base", ptr %3, i32 0, i32 0
  %5 = getelementptr inbounds %"struct.std::_Vector_base<TextureImageInfo, std::allocator<TextureImageInfo>>::_Vector_impl_data", ptr %4, i32 0, i32 1
  %6 = load ptr, ptr %5, align 8
  %7 = getelementptr inbounds %"struct.std::_Vector_base", ptr %3, i32 0, i32 0
  %8 = getelementptr inbounds %"struct.std::_Vector_base<TextureImageInfo, std::allocator<TextureImageInfo>>::_Vector_impl_data", ptr %7, i32 0, i32 0
  %9 = load ptr, ptr %8, align 8
  %10 = ptrtoint ptr %6 to i64
  %11 = ptrtoint ptr %9 to i64
  %12 = sub i64 %10, %11
  %13 = sdiv exact i64 %12, 32
  ret i64 %13
}

; Function Attrs: mustprogress uwtable
define noundef i32 @_ZN13TextureObject13TextureHeightEm(ptr noundef nonnull align 8 dereferenceable(48) %0, i64 noundef %1) #5 align 2 {
  %3 = alloca ptr, align 8
  %4 = alloca i64, align 8
  store ptr %0, ptr %3, align 8
  store i64 %1, ptr %4, align 8
  %5 = load ptr, ptr %3, align 8
  %6 = load i64, ptr %4, align 8
  %7 = getelementptr inbounds %struct.TextureObject, ptr %5, i32 0, i32 0
  %8 = call noundef i64 @_ZNKSt6vectorI16TextureImageInfoSaIS0_EE4sizeEv(ptr noundef nonnull align 8 dereferenceable(24) %7) #3
  %9 = icmp ult i64 %6, %8
  br i1 %9, label %10, label %11

10:                                               ; preds = %2
  br label %13

11:                                               ; preds = %2
  call void @_Z11ensure_failPKcS0_j(ptr noundef @.str.7, ptr noundef @.str.2, i32 noundef 114) #16
  unreachable

12:                                               ; No predecessors!
  br label %13

13:                                               ; preds = %12, %10
  %14 = getelementptr inbounds %struct.TextureObject, ptr %5, i32 0, i32 0
  %15 = load i64, ptr %4, align 8
  %16 = call noundef nonnull align 8 dereferenceable(32) ptr @_ZNSt6vectorI16TextureImageInfoSaIS0_EEixEm(ptr noundef nonnull align 8 dereferenceable(24) %14, i64 noundef %15) #3
  %17 = getelementptr inbounds %struct.TextureImageInfo, ptr %16, i32 0, i32 0
  %18 = call noundef i32 @_ZNK6QImage6heightEv(ptr noundef nonnull align 8 dereferenceable(32) %17)
  ret i32 %18
}

; Function Attrs: mustprogress uwtable
define noundef i32 @_ZN13TextureObject12TextureWidthEm(ptr noundef nonnull align 8 dereferenceable(48) %0, i64 noundef %1) #5 align 2 {
  %3 = alloca ptr, align 8
  %4 = alloca i64, align 8
  store ptr %0, ptr %3, align 8
  store i64 %1, ptr %4, align 8
  %5 = load ptr, ptr %3, align 8
  %6 = load i64, ptr %4, align 8
  %7 = getelementptr inbounds %struct.TextureObject, ptr %5, i32 0, i32 0
  %8 = call noundef i64 @_ZNKSt6vectorI16TextureImageInfoSaIS0_EE4sizeEv(ptr noundef nonnull align 8 dereferenceable(24) %7) #3
  %9 = icmp ult i64 %6, %8
  br i1 %9, label %10, label %11

10:                                               ; preds = %2
  br label %13

11:                                               ; preds = %2
  call void @_Z11ensure_failPKcS0_j(ptr noundef @.str.7, ptr noundef @.str.2, i32 noundef 108) #16
  unreachable

12:                                               ; No predecessors!
  br label %13

13:                                               ; preds = %12, %10
  %14 = getelementptr inbounds %struct.TextureObject, ptr %5, i32 0, i32 0
  %15 = load i64, ptr %4, align 8
  %16 = call noundef nonnull align 8 dereferenceable(32) ptr @_ZNSt6vectorI16TextureImageInfoSaIS0_EEixEm(ptr noundef nonnull align 8 dereferenceable(24) %14, i64 noundef %15) #3
  %17 = getelementptr inbounds %struct.TextureImageInfo, ptr %16, i32 0, i32 0
  %18 = call noundef i32 @_ZNK6QImage5widthEv(ptr noundef nonnull align 8 dereferenceable(32) %17)
  ret i32 %18
}

; Function Attrs: mustprogress nounwind uwtable
define noundef i64 @_ZN13TextureObject9ArraySizeEv(ptr noundef nonnull align 8 dereferenceable(48) %0) #4 align 2 {
  %2 = alloca ptr, align 8
  store ptr %0, ptr %2, align 8
  %3 = load ptr, ptr %2, align 8
  %4 = getelementptr inbounds %struct.TextureObject, ptr %3, i32 0, i32 0
  %5 = call noundef i64 @_ZNKSt6vectorI16TextureImageInfoSaIS0_EE4sizeEv(ptr noundef nonnull align 8 dereferenceable(24) %4) #3
  ret i64 %5
}

; Function Attrs: mustprogress uwtable
define noundef i64 @_ZN13TextureObject11TextureAreaEm(ptr noundef nonnull align 8 dereferenceable(48) %0, i64 noundef %1) #5 align 2 {
  %3 = alloca ptr, align 8
  %4 = alloca i64, align 8
  store ptr %0, ptr %3, align 8
  store i64 %1, ptr %4, align 8
  %5 = load ptr, ptr %3, align 8
  %6 = load i64, ptr %4, align 8
  %7 = call noundef i64 @_ZN13TextureObject9ArraySizeEv(ptr noundef nonnull align 8 dereferenceable(48) %5)
  %8 = icmp ult i64 %6, %7
  br i1 %8, label %9, label %10

9:                                                ; preds = %2
  br label %12

10:                                               ; preds = %2
  call void @_Z11ensure_failPKcS0_j(ptr noundef @.str.8, ptr noundef @.str.2, i32 noundef 144) #16
  unreachable

11:                                               ; No predecessors!
  br label %12

12:                                               ; preds = %11, %9
  %13 = load i64, ptr %4, align 8
  %14 = call noundef i32 @_ZN13TextureObject12TextureWidthEm(ptr noundef nonnull align 8 dereferenceable(48) %5, i64 noundef %13)
  %15 = sext i32 %14 to i64
  %16 = load i64, ptr %4, align 8
  %17 = call noundef i32 @_ZN13TextureObject13TextureHeightEm(ptr noundef nonnull align 8 dereferenceable(48) %5, i64 noundef %16)
  %18 = sext i32 %17 to i64
  %19 = mul nsw i64 %15, %18
  ret i64 %19
}