; Function Attrs: mustprogress uwtable
define noundef i64 @_ZN13TextureObject11TextureAreaEm(ptr nocapture noundef nonnull readonly align 8 dereferenceable(48) %0, i64 noundef %1) local_unnamed_addr #5 align 2 {
  %3 = getelementptr inbounds i8, ptr %0, i64 8
  %4 = load ptr, ptr %3, align 8
  %5 = load ptr, ptr %0, align 8
  %6 = ptrtoint ptr %4 to i64
  %7 = ptrtoint ptr %5 to i64
  %8 = sub i64 %6, %7
  %9 = ashr exact i64 %8, 5
  %10 = icmp ugt i64 %9, %1
  br i1 %10, label %_ZN13TextureObject12TextureWidthEm.exit, label %11

11:                                               ; preds = %2
  tail call void @_Z11ensure_failPKcS0_j(ptr noundef nonnull @.str.8, ptr noundef nonnull @.str.2, i32 noundef 144) #20
  unreachable

_ZN13TextureObject12TextureWidthEm.exit:          ; preds = %2
  %12 = getelementptr inbounds %struct.TextureImageInfo, ptr %5, i64 %1
  %13 = tail call noundef i32 @_ZNK6QImage5widthEv(ptr noundef nonnull align 8 dereferenceable(32) %12)
  %14 = load ptr, ptr %3, align 8
  %15 = load ptr, ptr %0, align 8
  %16 = ptrtoint ptr %14 to i64
  %17 = ptrtoint ptr %15 to i64
  %18 = sub i64 %16, %17
  %19 = ashr exact i64 %18, 5
  %20 = icmp ugt i64 %19, %1
  br i1 %20, label %_ZN13TextureObject13TextureHeightEm.exit, label %21

21:                                               ; preds = %_ZN13TextureObject12TextureWidthEm.exit
  tail call void @_Z11ensure_failPKcS0_j(ptr noundef nonnull @.str.7, ptr noundef nonnull @.str.2, i32 noundef 114) #20
  unreachable

_ZN13TextureObject13TextureHeightEm.exit:         ; preds = %_ZN13TextureObject12TextureWidthEm.exit
  %22 = sext i32 %13 to i64
  %23 = getelementptr inbounds %struct.TextureImageInfo, ptr %15, i64 %1
  %24 = tail call noundef i32 @_ZNK6QImage6heightEv(ptr noundef nonnull align 8 dereferenceable(32) %23)
  %25 = sext i32 %24 to i64
  %26 = mul nsw i64 %25, %22
  ret i64 %26
}